target datalayout = "e-m:e-p270:32:32-p271:32:32-p272:64:64-i64:64-i128:128-f80:128-n8:16:32:64-S128"
target triple = "x86_64-pc-linux-gnu"

%struct.numeric = type { i32, i32, i32, i32, i32, ptr, ptr }

; Function Attrs: nounwind uwtable
define internal void @zero_var(ptr noundef %0) #0 {
  %2 = alloca ptr, align 8
  store ptr %0, ptr %2, align 8
  %3 = load ptr, ptr %2, align 8
  %4 = getelementptr inbounds nuw %struct.numeric, ptr %3, i32 0, i32 5
  %5 = load ptr, ptr %4, align 8
  call void @free(ptr noundef %5) #8
  %6 = load ptr, ptr %2, align 8
  %7 = getelementptr inbounds nuw %struct.numeric, ptr %6, i32 0, i32 5
  store ptr null, ptr %7, align 8
  %8 = load ptr, ptr %2, align 8
  %9 = getelementptr inbounds nuw %struct.numeric, ptr %8, i32 0, i32 6
  store ptr null, ptr %9, align 8
  %10 = load ptr, ptr %2, align 8
  %11 = getelementptr inbounds nuw %struct.numeric, ptr %10, i32 0, i32 0
  store i32 0, ptr %11, align 8
  %12 = load ptr, ptr %2, align 8
  %13 = getelementptr inbounds nuw %struct.numeric, ptr %12, i32 0, i32 1
  store i32 0, ptr %13, align 4
  %14 = load ptr, ptr %2, align 8
  %15 = getelementptr inbounds nuw %struct.numeric, ptr %14, i32 0, i32 4
  store i32 0, ptr %15, align 8
  ret void
}

; Function Attrs: nounwind uwtable
define internal i32 @alloc_var(ptr noundef %0, i32 noundef %1) #0 {
  %3 = alloca i32, align 4
  %4 = alloca ptr, align 8
  %5 = alloca i32, align 4
  store ptr %0, ptr %4, align 8
  store i32 %1, ptr %5, align 4
  %6 = load ptr, ptr %4, align 8
  %7 = getelementptr inbounds nuw %struct.numeric, ptr %6, i32 0, i32 5
  %8 = load ptr, ptr %7, align 8
  call void @free(ptr noundef %8) #8
  %9 = load i32, ptr %5, align 4
  %10 = add i32 %9, 1
  %11 = sext i32 %10 to i64
  %12 = call ptr @pgtypes_alloc(i64 noundef %11)
  %13 = load ptr, ptr %4, align 8
  %14 = getelementptr inbounds nuw %struct.numeric, ptr %13, i32 0, i32 5
  store ptr %12, ptr %14, align 8
  %15 = load ptr, ptr %4, align 8
  %16 = getelementptr inbounds nuw %struct.numeric, ptr %15, i32 0, i32 5
  %17 = load ptr, ptr %16, align 8
  %18 = icmp eq ptr %17, null
  br i1 %18, label %19, label %20

19:                                               ; preds = %2
  store i32 -1, ptr %3, align 4
  br label %34

20:                                               ; preds = %2
  %21 = load ptr, ptr %4, align 8
  %22 = getelementptr inbounds nuw %struct.numeric, ptr %21, i32 0, i32 5
  %23 = load ptr, ptr %22, align 8
  %24 = getelementptr inbounds i8, ptr %23, i64 0
  store i8 0, ptr %24, align 1
  %25 = load ptr, ptr %4, align 8
  %26 = getelementptr inbounds nuw %struct.numeric, ptr %25, i32 0, i32 5
  %27 = load ptr, ptr %26, align 8
  %28 = getelementptr inbounds i8, ptr %27, i64 1
  %29 = load ptr, ptr %4, align 8
  %30 = getelementptr inbounds nuw %struct.numeric, ptr %29, i32 0, i32 6
  store ptr %28, ptr %30, align 8
  %31 = load i32, ptr %5, align 4
  %32 = load ptr, ptr %4, align 8
  %33 = getelementptr inbounds nuw %struct.numeric, ptr %32, i32 0, i32 0
  store i32 %31, ptr %33, align 8
  store i32 0, ptr %3, align 4
  br label %34

34:                                               ; preds = %20, %19
  %35 = load i32, ptr %3, align 4
  ret i32 %35
}

; Function Attrs: nounwind uwtable
define void @PGTYPESnumeric_free(ptr noundef %0) #0 {
  %2 = alloca ptr, align 8
  store ptr %0, ptr %2, align 8
  %3 = load ptr, ptr %2, align 8
  %4 = getelementptr inbounds nuw %struct.numeric, ptr %3, i32 0, i32 5
  %5 = load ptr, ptr %4, align 8
  call void @free(ptr noundef %5) #8
  %6 = load ptr, ptr %2, align 8
  call void @free(ptr noundef %6) #8
  ret void
}

; Function Attrs: nounwind uwtable
define i32 @PGTYPESnumeric_copy(ptr noundef %0, ptr noundef %1) #0 {
  %3 = alloca i32, align 4
  %4 = alloca ptr, align 8
  %5 = alloca ptr, align 8
  %6 = alloca i32, align 4
  %7 = alloca i32, align 4
  store ptr %0, ptr %4, align 8
  store ptr %1, ptr %5, align 8
  call void @llvm.lifetime.start.p0(i64 4, ptr %6) #8
  %8 = load ptr, ptr %5, align 8
  %9 = icmp eq ptr %8, null
  br i1 %9, label %10, label %11

10:                                               ; preds = %2
  store i32 -1, ptr %3, align 4
  store i32 1, ptr %7, align 4
  br label %65

11:                                               ; preds = %2
  %12 = load ptr, ptr %5, align 8
  call void @zero_var(ptr noundef %12)
  %13 = load ptr, ptr %4, align 8
  %14 = getelementptr inbounds nuw %struct.numeric, ptr %13, i32 0, i32 1
  %15 = load i32, ptr %14, align 4
  %16 = load ptr, ptr %5, align 8
  %17 = getelementptr inbounds nuw %struct.numeric, ptr %16, i32 0, i32 1
  store i32 %15, ptr %17, align 4
  %18 = load ptr, ptr %4, align 8
  %19 = getelementptr inbounds nuw %struct.numeric, ptr %18, i32 0, i32 2
  %20 = load i32, ptr %19, align 8
  %21 = load ptr, ptr %5, align 8
  %22 = getelementptr inbounds nuw %struct.numeric, ptr %21, i32 0, i32 2
  store i32 %20, ptr %22, align 8
  %23 = load ptr, ptr %4, align 8
  %24 = getelementptr inbounds nuw %struct.numeric, ptr %23, i32 0, i32 3
  %25 = load i32, ptr %24, align 4
  %26 = load ptr, ptr %5, align 8
  %27 = getelementptr inbounds nuw %struct.numeric, ptr %26, i32 0, i32 3
  store i32 %25, ptr %27, align 4
  %28 = load ptr, ptr %4, align 8
  %29 = getelementptr inbounds nuw %struct.numeric, ptr %28, i32 0, i32 4
  %30 = load i32, ptr %29, align 8
  %31 = load ptr, ptr %5, align 8
  %32 = getelementptr inbounds nuw %struct.numeric, ptr %31, i32 0, i32 4
  store i32 %30, ptr %32, align 8
  %33 = load ptr, ptr %5, align 8
  %34 = load ptr, ptr %4, align 8
  %35 = getelementptr inbounds nuw %struct.numeric, ptr %34, i32 0, i32 0
  %36 = load i32, ptr %35, align 8
  %37 = call i32 @alloc_var(ptr noundef %33, i32 noundef %36)
  %38 = icmp ne i32 %37, 0
  br i1 %38, label %39, label %40

39:                                               ; preds = %11
  store i32 -1, ptr %3, align 4
  store i32 1, ptr %7, align 4
  br label %65

40:                                               ; preds = %11
  store i32 0, ptr %6, align 4
  br label %41

41:                                               ; preds = %61, %40
  %42 = load i32, ptr %6, align 4
  %43 = load ptr, ptr %4, align 8
  %44 = getelementptr inbounds nuw %struct.numeric, ptr %43, i32 0, i32 0
  %45 = load i32, ptr %44, align 8
  %46 = icmp slt i32 %42, %45
  br i1 %46, label %47, label %64

47:                                               ; preds = %41
  %48 = load ptr, ptr %4, align 8
  %49 = getelementptr inbounds nuw %struct.numeric, ptr %48, i32 0, i32 6
  %50 = load ptr, ptr %49, align 8
  %51 = load i32, ptr %6, align 4
  %52 = sext i32 %51 to i64
  %53 = getelementptr inbounds i8, ptr %50, i64 %52
  %54 = load i8, ptr %53, align 1
  %55 = load ptr, ptr %5, align 8
  %56 = getelementptr inbounds nuw %struct.numeric, ptr %55, i32 0, i32 6
  %57 = load ptr, ptr %56, align 8
  %58 = load i32, ptr %6, align 4
  %59 = sext i32 %58 to i64
  %60 = getelementptr inbounds i8, ptr %57, i64 %59
  store i8 %54, ptr %60, align 1
  br label %61

61:                                               ; preds = %47
  %62 = load i32, ptr %6, align 4
  %63 = add i32 %62, 1
  store i32 %63, ptr %6, align 4
  br label %41, !llvm.loop !11

64:                                               ; preds = %41
  store i32 0, ptr %3, align 4
  store i32 1, ptr %7, align 4
  br label %65

65:                                               ; preds = %64, %39, %10
  call void @llvm.lifetime.end.p0(i64 4, ptr %6) #8
  %66 = load i32, ptr %3, align 4
  ret i32 %66
}

; Function Attrs: nounwind uwtable
define ptr @PGTYPESnumeric_new() #0 {
  %1 = alloca ptr, align 8
  %2 = alloca ptr, align 8
  %3 = alloca i32, align 4
  call void @llvm.lifetime.start.p0(i64 8, ptr %2) #8
  %4 = call ptr @pgtypes_alloc(i64 noundef 40)
  store ptr %4, ptr %2, align 8
  %5 = icmp eq ptr %4, null
  br i1 %5, label %6, label %7

6:                                                ; preds = %0
  store ptr null, ptr %1, align 8
  store i32 1, ptr %3, align 4
  br label %15

7:                                                ; preds = %0
  %8 = load ptr, ptr %2, align 8
  %9 = call i32 @alloc_var(ptr noundef %8, i32 noundef 0)
  %10 = icmp slt i32 %9, 0
  br i1 %10, label %11, label %13

11:                                               ; preds = %7
  %12 = load ptr, ptr %2, align 8
  call void @free(ptr noundef %12) #8
  store ptr null, ptr %1, align 8
  store i32 1, ptr %3, align 4
  br label %15

13:                                               ; preds = %7
  %14 = load ptr, ptr %2, align 8
  store ptr %14, ptr %1, align 8
  store i32 1, ptr %3, align 4
  br label %15

15:                                               ; preds = %13, %11, %6
  call void @llvm.lifetime.end.p0(i64 8, ptr %2) #8
  %16 = load ptr, ptr %1, align 8
  ret ptr %16
}

; Function Attrs: nounwind uwtable
define internal i32 @numericvar_to_double(ptr noundef %0, ptr noundef %1) #0 {
  %3 = alloca i32, align 4
  %4 = alloca ptr, align 8
  %5 = alloca ptr, align 8
  %6 = alloca ptr, align 8
  %7 = alloca double, align 8
  %8 = alloca ptr, align 8
  %9 = alloca ptr, align 8
  %10 = alloca i32, align 4
  store ptr %0, ptr %4, align 8
  store ptr %1, ptr %5, align 8
  call void @llvm.lifetime.start.p0(i64 8, ptr %6) #8
  call void @llvm.lifetime.start.p0(i64 8, ptr %7) #8
  call void @llvm.lifetime.start.p0(i64 8, ptr %8) #8
  call void @llvm.lifetime.start.p0(i64 8, ptr %9) #8
  %11 = call ptr @PGTYPESnumeric_new()
  store ptr %11, ptr %9, align 8
  %12 = load ptr, ptr %9, align 8
  %13 = icmp eq ptr %12, null
  br i1 %13, label %14, label %15

14:                                               ; preds = %2
  store i32 -1, ptr %3, align 4
  store i32 1, ptr %10, align 4
  br label %60

15:                                               ; preds = %2
  %16 = load ptr, ptr %4, align 8
  %17 = load ptr, ptr %9, align 8
  %18 = call i32 @PGTYPESnumeric_copy(ptr noundef %16, ptr noundef %17)
  %19 = icmp slt i32 %18, 0
  br i1 %19, label %20, label %22

20:                                               ; preds = %15
  %21 = load ptr, ptr %9, align 8
  call void @PGTYPESnumeric_free(ptr noundef %21)
  store i32 -1, ptr %3, align 4
  store i32 1, ptr %10, align 4
  br label %60

22:                                               ; preds = %15
  %23 = load ptr, ptr %9, align 8
  %24 = load ptr, ptr %9, align 8
  %25 = getelementptr inbounds nuw %struct.numeric, ptr %24, i32 0, i32 3
  %26 = load i32, ptr %25, align 4
  %27 = call ptr @get_str_from_var(ptr noundef %23, i32 noundef %26)
  store ptr %27, ptr %6, align 8
  %28 = load ptr, ptr %9, align 8
  call void @PGTYPESnumeric_free(ptr noundef %28)
  %29 = load ptr, ptr %6, align 8
  %30 = icmp eq ptr %29, null
  br i1 %30, label %31, label %32

31:                                               ; preds = %22
  store i32 -1, ptr %3, align 4
  store i32 1, ptr %10, align 4
  br label %60

32:                                               ; preds = %22
  %33 = call ptr @__errno_location() #9
  store i32 0, ptr %33, align 4
  %34 = load ptr, ptr %6, align 8
  %35 = call double @strtod(ptr noundef %34, ptr noundef %8) #8
  store double %35, ptr %7, align 8
  %36 = call ptr @__errno_location() #9
  %37 = load i32, ptr %36, align 4
  %38 = icmp eq i32 %37, 34
  br i1 %38, label %39, label %48

39:                                               ; preds = %32
  %40 = load ptr, ptr %6, align 8
  call void @free(ptr noundef %40) #8
  %41 = load double, ptr %7, align 8
  %42 = fcmp oeq double %41, 0.000000e+00
  br i1 %42, label %43, label %45

43:                                               ; preds = %39
  %44 = call ptr @__errno_location() #9
  store i32 304, ptr %44, align 4
  br label %47

45:                                               ; preds = %39
  %46 = call ptr @__errno_location() #9
  store i32 301, ptr %46, align 4
  br label %47

47:                                               ; preds = %45, %43
  store i32 -1, ptr %3, align 4
  store i32 1, ptr %10, align 4
  br label %60

48:                                               ; preds = %32
  %49 = load ptr, ptr %8, align 8
  %50 = load i8, ptr %49, align 1
  %51 = sext i8 %50 to i32
  %52 = icmp ne i32 %51, 0
  br i1 %52, label %53, label %56

53:                                               ; preds = %48
  %54 = load ptr, ptr %6, align 8
  call void @free(ptr noundef %54) #8
  %55 = call ptr @__errno_location() #9
  store i32 302, ptr %55, align 4
  store i32 -1, ptr %3, align 4
  store i32 1, ptr %10, align 4
  br label %60

56:                                               ; preds = %48
  %57 = load ptr, ptr %6, align 8
  call void @free(ptr noundef %57) #8
  %58 = load double, ptr %7, align 8
  %59 = load ptr, ptr %5, align 8
  store double %58, ptr %59, align 8
  store i32 0, ptr %3, align 4
  store i32 1, ptr %10, align 4
  br label %60

60:                                               ; preds = %56, %53, %47, %31, %20, %14
  call void @llvm.lifetime.end.p0(i64 8, ptr %9) #8
  call void @llvm.lifetime.end.p0(i64 8, ptr %8) #8
  call void @llvm.lifetime.end.p0(i64 8, ptr %7) #8
  call void @llvm.lifetime.end.p0(i64 8, ptr %6) #8
  %61 = load i32, ptr %3, align 4
  ret i32 %61
}

; Function Attrs: nounwind uwtable
define i32 @PGTYPESnumeric_to_double(ptr noundef %0, ptr noundef %1) #0 {
  %3 = alloca i32, align 4
  %4 = alloca ptr, align 8
  %5 = alloca ptr, align 8
  %6 = alloca double, align 8
  %7 = alloca i32, align 4
  store ptr %0, ptr %4, align 8
  store ptr %1, ptr %5, align 8
  call void @llvm.lifetime.start.p0(i64 8, ptr %6) #8
  %8 = load ptr, ptr %4, align 8
  %9 = call i32 @numericvar_to_double(ptr noundef %8, ptr noundef %6)
  %10 = icmp ne i32 %9, 0
  br i1 %10, label %11, label %12

11:                                               ; preds = %2
  store i32 -1, ptr %3, align 4
  store i32 1, ptr %7, align 4
  br label %15

12:                                               ; preds = %2
  %13 = load double, ptr %6, align 8
  %14 = load ptr, ptr %5, align 8
  store double %13, ptr %14, align 8
  store i32 0, ptr %3, align 4
  store i32 1, ptr %7, align 4
  br label %15

15:                                               ; preds = %12, %11
  call void @llvm.lifetime.end.p0(i64 8, ptr %6) #8
  %16 = load i32, ptr %3, align 4
  ret i32 %16
}