; Function Attrs: nounwind uwtable
define range(i32 -1, 1) i32 @PGTYPESnumeric_to_double(ptr noundef readonly captures(none) %0, ptr noundef writeonly captures(none) %1) local_unnamed_addr #0 {
  %3 = alloca ptr, align 8
  call void @llvm.lifetime.start.p0(i64 8, ptr nonnull %3) #14
  %4 = tail call ptr @pgtypes_alloc(i64 noundef 40) #14
  %5 = icmp eq ptr %4, null
  br i1 %5, label %numericvar_to_double.exit.thread, label %6

6:                                                ; preds = %2
  %7 = getelementptr inbounds nuw i8, ptr %4, i64 24
  %8 = load ptr, ptr %7, align 8
  tail call void @free(ptr noundef %8) #14
  %9 = tail call ptr @pgtypes_alloc(i64 noundef 1) #14
  store ptr %9, ptr %7, align 8
  %10 = icmp eq ptr %9, null
  br i1 %10, label %11, label %12

11:                                               ; preds = %6
  tail call void @free(ptr noundef nonnull %4) #14
  br label %numericvar_to_double.exit.thread

12:                                               ; preds = %6
  store i8 0, ptr %9, align 1
  %13 = load ptr, ptr %7, align 8
  %14 = getelementptr inbounds nuw i8, ptr %13, i64 1
  %15 = getelementptr inbounds nuw i8, ptr %4, i64 32
  store ptr %14, ptr %15, align 8
  store i32 0, ptr %4, align 8
  tail call void @free(ptr noundef %13) #14
  store i32 0, ptr %4, align 8
  %16 = getelementptr inbounds nuw i8, ptr %4, i64 4
  store i32 0, ptr %16, align 4
  %17 = getelementptr inbounds nuw i8, ptr %4, i64 16
  store i32 0, ptr %17, align 8
  tail call void @llvm.memset.p0.i64(ptr noundef nonnull align 8 dereferenceable(16) %7, i8 0, i64 16, i1 false)
  %18 = getelementptr inbounds nuw i8, ptr %0, i64 4
  %19 = load i32, ptr %18, align 4
  store i32 %19, ptr %16, align 4
  %20 = getelementptr inbounds nuw i8, ptr %0, i64 8
  %21 = load i32, ptr %20, align 8
  %22 = getelementptr inbounds nuw i8, ptr %4, i64 8
  store i32 %21, ptr %22, align 8
  %23 = getelementptr inbounds nuw i8, ptr %0, i64 12
  %24 = load i32, ptr %23, align 4
  %25 = getelementptr inbounds nuw i8, ptr %4, i64 12
  store i32 %24, ptr %25, align 4
  %26 = getelementptr inbounds nuw i8, ptr %0, i64 16
  %27 = load i32, ptr %26, align 8
  store i32 %27, ptr %17, align 8
  %28 = load i32, ptr %0, align 8
  %29 = add i32 %28, 1
  %30 = sext i32 %29 to i64
  %31 = tail call ptr @pgtypes_alloc(i64 noundef %30) #14
  store ptr %31, ptr %7, align 8
  %32 = icmp eq ptr %31, null
  br i1 %32, label %PGTYPESnumeric_copy.exit.i, label %alloc_var.exit.i17.i

alloc_var.exit.i17.i:                             ; preds = %12
  store i8 0, ptr %31, align 1
  %33 = load ptr, ptr %7, align 8
  %34 = getelementptr inbounds nuw i8, ptr %33, i64 1
  store ptr %34, ptr %15, align 8
  store i32 %28, ptr %4, align 8
  %35 = load i32, ptr %0, align 8
  %36 = icmp sgt i32 %35, 0
  br i1 %36, label %.lr.ph.i.i, label %.loopexit.i

.lr.ph.i.i:                                       ; preds = %alloc_var.exit.i17.i
  %37 = getelementptr inbounds nuw i8, ptr %0, i64 32
  br label %38

38:                                               ; preds = %38, %.lr.ph.i.i
  %indvars.iv.i.i = phi i64 [ 0, %.lr.ph.i.i ], [ %indvars.iv.next.i.i, %38 ]
  %39 = load ptr, ptr %37, align 8
  %40 = getelementptr inbounds nuw i8, ptr %39, i64 %indvars.iv.i.i
  %41 = load i8, ptr %40, align 1
  %42 = load ptr, ptr %15, align 8
  %43 = getelementptr inbounds nuw i8, ptr %42, i64 %indvars.iv.i.i
  store i8 %41, ptr %43, align 1
  %indvars.iv.next.i.i = add nuw nsw i64 %indvars.iv.i.i, 1
  %44 = load i32, ptr %0, align 8
  %45 = sext i32 %44 to i64
  %46 = icmp slt i64 %indvars.iv.next.i.i, %45
  br i1 %46, label %38, label %.loopexit.i, !llvm.loop !9

PGTYPESnumeric_copy.exit.i:                       ; preds = %12
  tail call void @free(ptr noundef nonnull %4) #14
  br label %numericvar_to_double.exit.thread

.loopexit.i:                                      ; preds = %38, %alloc_var.exit.i17.i
  %47 = load i32, ptr %25, align 4
  %48 = tail call fastcc ptr @get_str_from_var(ptr noundef %4, i32 noundef %47)
  %49 = load ptr, ptr %7, align 8
  tail call void @free(ptr noundef %49) #14
  tail call void @free(ptr noundef nonnull %4) #14
  %50 = icmp eq ptr %48, null
  br i1 %50, label %numericvar_to_double.exit.thread, label %51

51:                                               ; preds = %.loopexit.i
  %52 = tail call ptr @__errno_location() #15
  store i32 0, ptr %52, align 4
  %53 = call double @strtod(ptr noundef nonnull %48, ptr noundef nonnull %3) #14
  %54 = load i32, ptr %52, align 4
  %55 = icmp eq i32 %54, 34
  br i1 %55, label %56, label %58

56:                                               ; preds = %51
  tail call void @free(ptr noundef nonnull %48) #14
  %57 = fcmp oeq double %53, 0.000000e+00
  %..i = select i1 %57, i32 304, i32 301
  store i32 %..i, ptr %52, align 4
  br label %numericvar_to_double.exit.thread

58:                                               ; preds = %51
  %59 = load ptr, ptr %3, align 8
  %60 = load i8, ptr %59, align 1
  %.not.i = icmp eq i8 %60, 0
  tail call void @free(ptr noundef nonnull %48) #14
  br i1 %.not.i, label %62, label %61

61:                                               ; preds = %58
  store i32 302, ptr %52, align 4
  br label %numericvar_to_double.exit.thread

numericvar_to_double.exit.thread:                 ; preds = %PGTYPESnumeric_copy.exit.i, %56, %61, %.loopexit.i, %11, %2
  call void @llvm.lifetime.end.p0(i64 8, ptr nonnull %3) #14
  br label %63

62:                                               ; preds = %58
  call void @llvm.lifetime.end.p0(i64 8, ptr nonnull %3) #14
  store double %53, ptr %1, align 8
  br label %63

63:                                               ; preds = %numericvar_to_double.exit.thread, %62
  %.0 = phi i32 [ 0, %62 ], [ -1, %numericvar_to_double.exit.thread ]
  ret i32 %.0
}